; Function Attrs: nounwind uwtable
define ptr @l_Lean_Meta_RecursorInfo_firstIndexPos(ptr noundef readonly captures(none) %0) local_unnamed_addr #0 {
  %2 = getelementptr inbounds nuw i8, ptr %0, i64 40
  %3 = load ptr, ptr %2, align 8, !tbaa !4
  %4 = getelementptr inbounds nuw i8, ptr %0, i64 56
  %5 = load ptr, ptr %4, align 8, !tbaa !4
  %6 = tail call ptr @l_List_lengthTRAux___rarg(ptr noundef %5, ptr noundef nonnull inttoptr (i64 1 to ptr)) #6
  %7 = ptrtoint ptr %3 to i64
  %8 = and i64 %7, 1
  %.not = icmp eq i64 %8, 0
  %.pre10 = ptrtoint ptr %6 to i64
  %.pre = and i64 %.pre10, 1
  %9 = icmp eq i64 %.pre, 0
  br i1 %.not, label %lean_nat_sub.exit, label %10, !prof !12

10:                                               ; preds = %1
  br i1 %9, label %lean_nat_sub.exit.thread14, label %12, !prof !12

lean_nat_sub.exit.thread14:                       ; preds = %10
  %11 = tail call ptr @lean_nat_big_sub(ptr noundef %3, ptr noundef %6) #6
  br label %22

12:                                               ; preds = %10
  %13 = lshr i64 %7, 1
  %14 = lshr i64 %.pre10, 1
  %15 = icmp samesign ult i64 %13, %14
  br i1 %15, label %lean_dec.exit, label %16

16:                                               ; preds = %12
  %17 = sub nuw nsw i64 %13, %14
  %18 = shl nuw i64 %17, 1
  %19 = or disjoint i64 %18, 1
  %20 = inttoptr i64 %19 to ptr
  br label %lean_dec.exit

lean_nat_sub.exit:                                ; preds = %1
  %21 = tail call ptr @lean_nat_big_sub(ptr noundef %3, ptr noundef %6) #6
  br i1 %9, label %22, label %lean_dec.exit

22:                                               ; preds = %lean_nat_sub.exit.thread14, %lean_nat_sub.exit
  %23 = phi ptr [ %11, %lean_nat_sub.exit.thread14 ], [ %21, %lean_nat_sub.exit ]
  %24 = load i32, ptr %6, align 4, !tbaa !8
  %25 = icmp sgt i32 %24, 1
  br i1 %25, label %26, label %28, !prof !11

26:                                               ; preds = %22
  %27 = add nsw i32 %24, -1
  store i32 %27, ptr %6, align 4, !tbaa !8
  br label %lean_dec.exit

28:                                               ; preds = %22
  %.not.i = icmp eq i32 %24, 0
  br i1 %.not.i, label %lean_dec.exit, label %29

29:                                               ; preds = %28
  tail call void @lean_dec_ref_cold(ptr noundef nonnull %6) #6
  br label %lean_dec.exit

lean_dec.exit:                                    ; preds = %16, %12, %29, %28, %26, %lean_nat_sub.exit
  %.1.i13 = phi ptr [ %23, %29 ], [ %23, %28 ], [ %23, %26 ], [ %21, %lean_nat_sub.exit ], [ %20, %16 ], [ inttoptr (i64 1 to ptr), %12 ]
  ret ptr %.1.i13
}